target datalayout = "e-m:e-p270:32:32-p271:32:32-p272:64:64-i64:64-i128:128-f80:128-n8:16:32:64-S128"
target triple = "x86_64-pc-linux-gnu"

%"class.std::unique_ptr.2" = type { %"struct.std::__uniq_ptr_data.3" }
%"struct.std::__uniq_ptr_data.3" = type { %"class.std::__uniq_ptr_impl.4" }
%"class.std::__uniq_ptr_impl.4" = type { %"class.std::tuple.5" }
%"class.std::tuple.5" = type { %"struct.std::_Tuple_impl.6" }
%"struct.std::_Tuple_impl.6" = type { %"struct.std::_Head_base.9" }
%"struct.std::_Head_base.9" = type { ptr }
%"class.std::unique_ptr.10" = type { %"struct.std::__uniq_ptr_data.11" }
%"struct.std::__uniq_ptr_data.11" = type { %"class.std::__uniq_ptr_impl.12" }
%"class.std::__uniq_ptr_impl.12" = type { %"class.std::tuple.13" }
%"class.std::tuple.13" = type { %"struct.std::_Tuple_impl.14" }
%"struct.std::_Tuple_impl.14" = type { %"struct.std::_Head_base.17" }
%"struct.std::_Head_base.17" = type { ptr }
%"class.std::vector" = type { %"struct.std::_Vector_base" }
%"struct.std::_Vector_base" = type { %"struct.std::_Vector_base<unsigned char, std::allocator<unsigned char>>::_Vector_impl" }
%"struct.std::_Vector_base<unsigned char, std::allocator<unsigned char>>::_Vector_impl" = type { %"struct.std::_Vector_base<unsigned char, std::allocator<unsigned char>>::_Vector_impl_data" }
%"struct.std::_Vector_base<unsigned char, std::allocator<unsigned char>>::_Vector_impl_data" = type { ptr, ptr, ptr }
%struct.TestState = type <{ ptr, %struct.timeval, %struct.timeval, %"class.std::unique_ptr.10", i8, [7 x i8], %"class.std::unique_ptr.2", %"class.std::unique_ptr.2", i8, i8, [6 x i8], %"class.std::unique_ptr.10", %"class.std::vector", i32, i8, [3 x i8] }>
%struct.timeval = type { i64, i64 }

@_ZL13g_state_index = internal global i32 0, align 4

; Function Attrs: mustprogress nounwind uwtable
define linkonce_odr hidden noundef nonnull align 8 dereferenceable(8) ptr @_ZNSt10_Head_baseILm0EP14ssl_session_stLb0EE7_M_headERS2_(ptr noundef nonnull align 8 dereferenceable(8) %0) #4 comdat align 2 {
  %2 = alloca ptr, align 8
  store ptr %0, ptr %2, align 8, !tbaa !278
  %3 = load ptr, ptr %2, align 8, !tbaa !278
  %4 = getelementptr inbounds nuw %"struct.std::_Head_base.9", ptr %3, i32 0, i32 0
  ret ptr %4
}

; Function Attrs: mustprogress nounwind uwtable
define linkonce_odr hidden noundef nonnull align 8 dereferenceable(8) ptr @_ZNSt10_Head_baseILm0EP14ssl_session_stLb0EE7_M_headERKS2_(ptr noundef nonnull align 8 dereferenceable(8) %0) #4 comdat align 2 {
  %2 = alloca ptr, align 8
  store ptr %0, ptr %2, align 8, !tbaa !278
  %3 = load ptr, ptr %2, align 8, !tbaa !278
  %4 = getelementptr inbounds nuw %"struct.std::_Head_base.9", ptr %3, i32 0, i32 0
  ret ptr %4
}

; Function Attrs: mustprogress nounwind uwtable
define linkonce_odr hidden noundef nonnull align 8 dereferenceable(8) ptr @_ZNSt11_Tuple_implILm0EJP14ssl_session_st14OpenSSLDeleterIS0_XadL_Z16SSL_SESSION_freeEEEEE7_M_headERS4_(ptr noundef nonnull align 8 dereferenceable(8) %0) #4 comdat align 2 {
  %2 = alloca ptr, align 8
  store ptr %0, ptr %2, align 8, !tbaa !276
  %3 = load ptr, ptr %2, align 8, !tbaa !276
  %4 = call noundef nonnull align 8 dereferenceable(8) ptr @_ZNSt10_Head_baseILm0EP14ssl_session_stLb0EE7_M_headERS2_(ptr noundef nonnull align 8 dereferenceable(8) %3) #18
  ret ptr %4
}

; Function Attrs: mustprogress nounwind uwtable
define linkonce_odr hidden noundef nonnull align 8 dereferenceable(8) ptr @_ZNSt11_Tuple_implILm0EJP14ssl_session_st14OpenSSLDeleterIS0_XadL_Z16SSL_SESSION_freeEEEEE7_M_headERKS4_(ptr noundef nonnull align 8 dereferenceable(8) %0) #4 comdat align 2 {
  %2 = alloca ptr, align 8
  store ptr %0, ptr %2, align 8, !tbaa !276
  %3 = load ptr, ptr %2, align 8, !tbaa !276
  %4 = call noundef nonnull align 8 dereferenceable(8) ptr @_ZNSt10_Head_baseILm0EP14ssl_session_stLb0EE7_M_headERKS2_(ptr noundef nonnull align 8 dereferenceable(8) %3) #18
  ret ptr %4
}

; Function Attrs: mustprogress nounwind uwtable
define linkonce_odr hidden noundef nonnull align 8 dereferenceable(8) ptr @_ZSt12__get_helperILm0EP14ssl_session_stJ14OpenSSLDeleterIS0_XadL_Z16SSL_SESSION_freeEEEEERT0_RSt11_Tuple_implIXT_EJS4_DpT1_EE(ptr noundef nonnull align 8 dereferenceable(8) %0) #4 comdat {
  %2 = alloca ptr, align 8
  store ptr %0, ptr %2, align 8, !tbaa !276
  %3 = load ptr, ptr %2, align 8, !tbaa !276
  %4 = call noundef nonnull align 8 dereferenceable(8) ptr @_ZNSt11_Tuple_implILm0EJP14ssl_session_st14OpenSSLDeleterIS0_XadL_Z16SSL_SESSION_freeEEEEE7_M_headERS4_(ptr noundef nonnull align 8 dereferenceable(8) %3) #18
  ret ptr %4
}

; Function Attrs: mustprogress nounwind uwtable
define linkonce_odr hidden noundef nonnull align 8 dereferenceable(8) ptr @_ZSt12__get_helperILm0EP14ssl_session_stJ14OpenSSLDeleterIS0_XadL_Z16SSL_SESSION_freeEEEEERKT0_RKSt11_Tuple_implIXT_EJS4_DpT1_EE(ptr noundef nonnull align 8 dereferenceable(8) %0) #4 comdat {
  %2 = alloca ptr, align 8
  store ptr %0, ptr %2, align 8, !tbaa !276
  %3 = load ptr, ptr %2, align 8, !tbaa !276
  %4 = call noundef nonnull align 8 dereferenceable(8) ptr @_ZNSt11_Tuple_implILm0EJP14ssl_session_st14OpenSSLDeleterIS0_XadL_Z16SSL_SESSION_freeEEEEE7_M_headERKS4_(ptr noundef nonnull align 8 dereferenceable(8) %3) #18
  ret ptr %4
}

; Function Attrs: mustprogress nounwind uwtable
define linkonce_odr hidden noundef nonnull align 8 dereferenceable(8) ptr @_ZSt3getILm0EJP14ssl_session_st14OpenSSLDeleterIS0_XadL_Z16SSL_SESSION_freeEEEEERNSt13tuple_elementIXT_ESt5tupleIJDpT0_EEE4typeERS8_(ptr noundef nonnull align 8 dereferenceable(8) %0) #4 comdat {
  %2 = alloca ptr, align 8
  store ptr %0, ptr %2, align 8, !tbaa !274
  %3 = load ptr, ptr %2, align 8, !tbaa !274
  %4 = call noundef nonnull align 8 dereferenceable(8) ptr @_ZSt12__get_helperILm0EP14ssl_session_stJ14OpenSSLDeleterIS0_XadL_Z16SSL_SESSION_freeEEEEERT0_RSt11_Tuple_implIXT_EJS4_DpT1_EE(ptr noundef nonnull align 8 dereferenceable(8) %3) #18
  ret ptr %4
}

; Function Attrs: mustprogress nounwind uwtable
define linkonce_odr hidden noundef nonnull align 8 dereferenceable(8) ptr @_ZSt3getILm0EJP14ssl_session_st14OpenSSLDeleterIS0_XadL_Z16SSL_SESSION_freeEEEEERKNSt13tuple_elementIXT_ESt5tupleIJDpT0_EEE4typeERKS8_(ptr noundef nonnull align 8 dereferenceable(8) %0) #4 comdat {
  %2 = alloca ptr, align 8
  store ptr %0, ptr %2, align 8, !tbaa !274
  %3 = load ptr, ptr %2, align 8, !tbaa !274
  %4 = call noundef nonnull align 8 dereferenceable(8) ptr @_ZSt12__get_helperILm0EP14ssl_session_stJ14OpenSSLDeleterIS0_XadL_Z16SSL_SESSION_freeEEEEERKT0_RKSt11_Tuple_implIXT_EJS4_DpT1_EE(ptr noundef nonnull align 8 dereferenceable(8) %3) #18
  ret ptr %4
}

; Function Attrs: mustprogress nounwind uwtable
define linkonce_odr hidden noundef nonnull align 8 dereferenceable(8) ptr @_ZNSt15__uniq_ptr_implI14ssl_session_st14OpenSSLDeleterIS0_XadL_Z16SSL_SESSION_freeEEEE6_M_ptrEv(ptr noundef nonnull align 8 dereferenceable(8) %0) #4 comdat align 2 {
  %2 = alloca ptr, align 8
  store ptr %0, ptr %2, align 8, !tbaa !272
  %3 = load ptr, ptr %2, align 8
  %4 = getelementptr inbounds nuw %"class.std::__uniq_ptr_impl.4", ptr %3, i32 0, i32 0
  %5 = call noundef nonnull align 8 dereferenceable(8) ptr @_ZSt3getILm0EJP14ssl_session_st14OpenSSLDeleterIS0_XadL_Z16SSL_SESSION_freeEEEEERNSt13tuple_elementIXT_ESt5tupleIJDpT0_EEE4typeERS8_(ptr noundef nonnull align 8 dereferenceable(8) %4) #18
  ret ptr %5
}

; Function Attrs: mustprogress nounwind uwtable
define linkonce_odr hidden noundef ptr @_ZNKSt15__uniq_ptr_implI14ssl_session_st14OpenSSLDeleterIS0_XadL_Z16SSL_SESSION_freeEEEE6_M_ptrEv(ptr noundef nonnull align 8 dereferenceable(8) %0) #4 comdat align 2 {
  %2 = alloca ptr, align 8
  store ptr %0, ptr %2, align 8, !tbaa !272
  %3 = load ptr, ptr %2, align 8
  %4 = getelementptr inbounds nuw %"class.std::__uniq_ptr_impl.4", ptr %3, i32 0, i32 0
  %5 = call noundef nonnull align 8 dereferenceable(8) ptr @_ZSt3getILm0EJP14ssl_session_st14OpenSSLDeleterIS0_XadL_Z16SSL_SESSION_freeEEEEERKNSt13tuple_elementIXT_ESt5tupleIJDpT0_EEE4typeERKS8_(ptr noundef nonnull align 8 dereferenceable(8) %4) #18
  %6 = load ptr, ptr %5, align 8, !tbaa !120
  ret ptr %6
}

; Function Attrs: mustprogress nounwind uwtable
define linkonce_odr hidden noundef ptr @_ZNSt15__uniq_ptr_implI14ssl_session_st14OpenSSLDeleterIS0_XadL_Z16SSL_SESSION_freeEEEE7releaseEv(ptr noundef nonnull align 8 dereferenceable(8) %0) #4 comdat align 2 {
  %2 = alloca ptr, align 8
  %3 = alloca ptr, align 8
  store ptr %0, ptr %2, align 8, !tbaa !272
  %4 = load ptr, ptr %2, align 8
  call void @llvm.lifetime.start.p0(i64 8, ptr %3) #18
  %5 = call noundef nonnull align 8 dereferenceable(8) ptr @_ZNSt15__uniq_ptr_implI14ssl_session_st14OpenSSLDeleterIS0_XadL_Z16SSL_SESSION_freeEEEE6_M_ptrEv(ptr noundef nonnull align 8 dereferenceable(8) %4) #18
  %6 = load ptr, ptr %5, align 8, !tbaa !120
  store ptr %6, ptr %3, align 8, !tbaa !120
  %7 = call noundef nonnull align 8 dereferenceable(8) ptr @_ZNSt15__uniq_ptr_implI14ssl_session_st14OpenSSLDeleterIS0_XadL_Z16SSL_SESSION_freeEEEE6_M_ptrEv(ptr noundef nonnull align 8 dereferenceable(8) %4) #18
  store ptr null, ptr %7, align 8, !tbaa !120
  %8 = load ptr, ptr %3, align 8, !tbaa !120
  call void @llvm.lifetime.end.p0(i64 8, ptr %3) #18
  ret ptr %8
}

; Function Attrs: mustprogress nounwind uwtable
define linkonce_odr hidden noundef ptr @_ZNKSt10unique_ptrI14ssl_session_st14OpenSSLDeleterIS0_XadL_Z16SSL_SESSION_freeEEEE3getEv(ptr noundef nonnull align 8 dereferenceable(8) %0) #4 comdat align 2 {
  %2 = alloca ptr, align 8
  store ptr %0, ptr %2, align 8, !tbaa !115
  %3 = load ptr, ptr %2, align 8
  %4 = getelementptr inbounds nuw %"class.std::unique_ptr.2", ptr %3, i32 0, i32 0
  %5 = call noundef ptr @_ZNKSt15__uniq_ptr_implI14ssl_session_st14OpenSSLDeleterIS0_XadL_Z16SSL_SESSION_freeEEEE6_M_ptrEv(ptr noundef nonnull align 8 dereferenceable(8) %4) #18
  ret ptr %5
}

; Function Attrs: mustprogress nounwind uwtable
define linkonce_odr hidden noundef ptr @_ZNSt10unique_ptrI14ssl_session_st14OpenSSLDeleterIS0_XadL_Z16SSL_SESSION_freeEEEE7releaseEv(ptr noundef nonnull align 8 dereferenceable(8) %0) #4 comdat align 2 {
  %2 = alloca ptr, align 8
  store ptr %0, ptr %2, align 8, !tbaa !115
  %3 = load ptr, ptr %2, align 8
  %4 = getelementptr inbounds nuw %"class.std::unique_ptr.2", ptr %3, i32 0, i32 0
  %5 = call noundef ptr @_ZNSt15__uniq_ptr_implI14ssl_session_st14OpenSSLDeleterIS0_XadL_Z16SSL_SESSION_freeEEEE7releaseEv(ptr noundef nonnull align 8 dereferenceable(8) %4) #18
  ret ptr %5
}

; Function Attrs: mustprogress nounwind uwtable
define linkonce_odr hidden noundef zeroext i1 @_ZNKSt10unique_ptrI14ssl_session_st14OpenSSLDeleterIS0_XadL_Z16SSL_SESSION_freeEEEEcvbEv(ptr noundef nonnull align 8 dereferenceable(8) %0) #4 comdat align 2 {
  %2 = alloca ptr, align 8
  store ptr %0, ptr %2, align 8, !tbaa !115
  %3 = load ptr, ptr %2, align 8
  %4 = call noundef ptr @_ZNKSt10unique_ptrI14ssl_session_st14OpenSSLDeleterIS0_XadL_Z16SSL_SESSION_freeEEEE3getEv(ptr noundef nonnull align 8 dereferenceable(8) %3) #18
  %5 = icmp eq ptr %4, null
  %6 = select i1 %5, i1 false, i1 true
  ret i1 %6
}

; Function Attrs: mustprogress uwtable
define internal noundef ptr @_ZL12GetTestStatePK6ssl_st(ptr noundef %0) #6 {
  %2 = alloca ptr, align 8
  store ptr %0, ptr %2, align 8, !tbaa !204
  %3 = load ptr, ptr %2, align 8, !tbaa !204
  %4 = load i32, ptr @_ZL13g_state_index, align 4, !tbaa !6
  %5 = call ptr @SSL_get_ex_data(ptr noundef %3, i32 noundef %4)
  ret ptr %5
}

; Function Attrs: mustprogress uwtable
define internal noundef ptr @_ZL18GetSessionCallbackP6ssl_stPhiPi(ptr noundef %0, ptr noundef %1, i32 noundef %2, ptr noundef %3) #6 {
  %5 = alloca ptr, align 8
  %6 = alloca ptr, align 8
  %7 = alloca ptr, align 8
  %8 = alloca i32, align 4
  %9 = alloca ptr, align 8
  %10 = alloca ptr, align 8
  %11 = alloca i32, align 4
  store ptr %0, ptr %6, align 8, !tbaa !204
  store ptr %1, ptr %7, align 8, !tbaa !13
  store i32 %2, ptr %8, align 4, !tbaa !6
  store ptr %3, ptr %9, align 8, !tbaa !206
  call void @llvm.lifetime.start.p0(i64 8, ptr %10) #18
  %12 = load ptr, ptr %6, align 8, !tbaa !204
  %13 = call noundef ptr @_ZL12GetTestStatePK6ssl_st(ptr noundef %12)
  store ptr %13, ptr %10, align 8, !tbaa !155
  %14 = load ptr, ptr %10, align 8, !tbaa !155
  %15 = getelementptr inbounds nuw %struct.TestState, ptr %14, i32 0, i32 6
  %16 = call noundef zeroext i1 @_ZNKSt10unique_ptrI14ssl_session_st14OpenSSLDeleterIS0_XadL_Z16SSL_SESSION_freeEEEEcvbEv(ptr noundef nonnull align 8 dereferenceable(8) %15) #18
  br i1 %16, label %17, label %22

17:                                               ; preds = %4
  %18 = load ptr, ptr %9, align 8, !tbaa !206
  store i32 0, ptr %18, align 4, !tbaa !6
  %19 = load ptr, ptr %10, align 8, !tbaa !155
  %20 = getelementptr inbounds nuw %struct.TestState, ptr %19, i32 0, i32 6
  %21 = call noundef ptr @_ZNSt10unique_ptrI14ssl_session_st14OpenSSLDeleterIS0_XadL_Z16SSL_SESSION_freeEEEE7releaseEv(ptr noundef nonnull align 8 dereferenceable(8) %20) #18
  store ptr %21, ptr %5, align 8
  store i32 1, ptr %11, align 4
  br label %29

22:                                               ; preds = %4
  %23 = load ptr, ptr %10, align 8, !tbaa !155
  %24 = getelementptr inbounds nuw %struct.TestState, ptr %23, i32 0, i32 7
  %25 = call noundef zeroext i1 @_ZNKSt10unique_ptrI14ssl_session_st14OpenSSLDeleterIS0_XadL_Z16SSL_SESSION_freeEEEEcvbEv(ptr noundef nonnull align 8 dereferenceable(8) %24) #18
  br i1 %25, label %26, label %28

26:                                               ; preds = %22
  %27 = call ptr @SSL_magic_pending_session_ptr()
  store ptr %27, ptr %5, align 8
  store i32 1, ptr %11, align 4
  br label %29

28:                                               ; preds = %22
  store ptr null, ptr %5, align 8
  store i32 1, ptr %11, align 4
  br label %29

29:                                               ; preds = %28, %26, %17
  call void @llvm.lifetime.end.p0(i64 8, ptr %10) #18
  %30 = load ptr, ptr %5, align 8
  ret ptr %30
}