; Function Attrs: mustprogress uwtable
define internal noundef ptr @_ZL18GetSessionCallbackP6ssl_stPhiPi(ptr noundef %0, ptr readnone captures(none) %1, i32 %2, ptr noundef writeonly captures(none) %3) #10 {
  %5 = load i32, ptr @_ZL13g_state_index, align 4, !tbaa !6
  %6 = tail call noundef ptr @SSL_get_ex_data(ptr noundef %0, i32 noundef %5)
  %7 = getelementptr inbounds nuw i8, ptr %6, i64 56
  %8 = load ptr, ptr %7, align 8, !tbaa !83
  %.not = icmp eq ptr %8, null
  br i1 %.not, label %10, label %9

9:                                                ; preds = %4
  store i32 0, ptr %3, align 4, !tbaa !6
  store ptr null, ptr %7, align 8, !tbaa !83
  br label %15

10:                                               ; preds = %4
  %11 = getelementptr inbounds nuw i8, ptr %6, i64 64
  %12 = load ptr, ptr %11, align 8, !tbaa !83
  %.not6 = icmp eq ptr %12, null
  br i1 %.not6, label %15, label %13

13:                                               ; preds = %10
  %14 = tail call ptr @SSL_magic_pending_session_ptr()
  br label %15

15:                                               ; preds = %10, %13, %9
  %.0 = phi ptr [ %8, %9 ], [ %14, %13 ], [ null, %10 ]
  ret ptr %.0
}